; Function Attrs: nounwind uwtable
define void @PMIx_Query_free(ptr noundef captures(address_is_null) %0, i64 noundef %1) local_unnamed_addr #6 {
  %.not.i = icmp eq ptr %0, null
  br i1 %.not.i, label %pmix_bfrops_base_tma_query_free.exit, label %.preheader.i

.preheader.i:                                     ; preds = %2
  %.not2.i = icmp eq i64 %1, 0
  br i1 %.not2.i, label %._crit_edge.i, label %.lr.ph.i

._crit_edge.i:                                    ; preds = %pmix_bfrops_base_tma_query_destruct.exit.i, %.preheader.i
  tail call void @free(ptr noundef nonnull %0) #44
  br label %pmix_bfrops_base_tma_query_free.exit

.lr.ph.i:                                         ; preds = %.preheader.i, %pmix_bfrops_base_tma_query_destruct.exit.i
  %.01.i = phi i64 [ %21, %pmix_bfrops_base_tma_query_destruct.exit.i ], [ 0, %.preheader.i ]
  %3 = getelementptr inbounds nuw %struct.pmix_query, ptr %0, i64 %.01.i
  %4 = load ptr, ptr %3, align 8, !tbaa !129
  %.not.i.i = icmp eq ptr %4, null
  br i1 %.not.i.i, label %9, label %.preheader.i.i.i

.preheader.i.i.i:                                 ; preds = %.lr.ph.i
  %5 = load ptr, ptr %4, align 8, !tbaa !12
  %.not101.i.i.i = icmp eq ptr %5, null
  br i1 %.not101.i.i.i, label %pmix_bfrops_base_tma_argv_free.exit.i.i, label %.lr.ph.i.i.i

.lr.ph.i.i.i:                                     ; preds = %.preheader.i.i.i, %.lr.ph.i.i.i
  %6 = phi ptr [ %8, %.lr.ph.i.i.i ], [ %5, %.preheader.i.i.i ]
  %.02.i.i.i = phi ptr [ %7, %.lr.ph.i.i.i ], [ %4, %.preheader.i.i.i ]
  tail call void @free(ptr noundef nonnull %6) #44
  %7 = getelementptr inbounds nuw i8, ptr %.02.i.i.i, i64 8
  %8 = load ptr, ptr %7, align 8, !tbaa !12
  %.not10.i.i.i = icmp eq ptr %8, null
  br i1 %.not10.i.i.i, label %pmix_bfrops_base_tma_argv_free.exit.i.i, label %.lr.ph.i.i.i, !llvm.loop !19

pmix_bfrops_base_tma_argv_free.exit.i.i:          ; preds = %.lr.ph.i.i.i, %.preheader.i.i.i
  tail call void @free(ptr noundef nonnull %4) #44
  store ptr null, ptr %3, align 8, !tbaa !129
  br label %9

9:                                                ; preds = %pmix_bfrops_base_tma_argv_free.exit.i.i, %.lr.ph.i
  %10 = getelementptr inbounds nuw i8, ptr %3, i64 8
  %11 = load ptr, ptr %10, align 8, !tbaa !131
  %.not11.i.i = icmp eq ptr %11, null
  br i1 %.not11.i.i, label %pmix_bfrops_base_tma_query_destruct.exit.i, label %12

12:                                               ; preds = %9
  %13 = getelementptr inbounds nuw i8, ptr %3, i64 16
  %14 = load i64, ptr %13, align 8, !tbaa !132
  %.not2.i.i = icmp eq i64 %14, 0
  br i1 %.not2.i.i, label %pmix_bfrops_base_tma_info_free.exit.i.i, label %.lr.ph.i.i

.lr.ph.i.i:                                       ; preds = %12, %pmix_bfrops_base_tma_info_destruct.exit.i.i
  %.0.i1.i.i = phi i64 [ %20, %pmix_bfrops_base_tma_info_destruct.exit.i.i ], [ 0, %12 ]
  %15 = getelementptr inbounds nuw %struct.pmix_info, ptr %11, i64 %.0.i1.i.i
  %16 = getelementptr i8, ptr %15, i64 512
  %.val.i.i.i = load i32, ptr %16, align 8, !tbaa !80
  %17 = and i32 %.val.i.i.i, 16
  %.not.i13.i.i = icmp eq i32 %17, 0
  br i1 %.not.i13.i.i, label %18, label %pmix_bfrops_base_tma_info_destruct.exit.i.i

18:                                               ; preds = %.lr.ph.i.i
  %19 = getelementptr inbounds nuw i8, ptr %15, i64 520
  tail call fastcc void @pmix_bfrops_base_tma_value_destruct(ptr noundef nonnull %19)
  br label %pmix_bfrops_base_tma_info_destruct.exit.i.i

pmix_bfrops_base_tma_info_destruct.exit.i.i:      ; preds = %18, %.lr.ph.i.i
  %20 = add nuw i64 %.0.i1.i.i, 1
  %exitcond.not.i.i = icmp eq i64 %20, %14
  br i1 %exitcond.not.i.i, label %pmix_bfrops_base_tma_info_free.exit.i.i, label %.lr.ph.i.i, !llvm.loop !83

pmix_bfrops_base_tma_info_free.exit.i.i:          ; preds = %pmix_bfrops_base_tma_info_destruct.exit.i.i, %12
  tail call void @free(ptr noundef nonnull %11) #44
  tail call void @llvm.memset.p0.i64(ptr noundef nonnull align 8 dereferenceable(16) %10, i8 0, i64 16, i1 false)
  br label %pmix_bfrops_base_tma_query_destruct.exit.i

pmix_bfrops_base_tma_query_destruct.exit.i:       ; preds = %pmix_bfrops_base_tma_info_free.exit.i.i, %9
  %21 = add nuw i64 %.01.i, 1
  %exitcond.not.i = icmp eq i64 %21, %1
  br i1 %exitcond.not.i, label %._crit_edge.i, label %.lr.ph.i, !llvm.loop !133

pmix_bfrops_base_tma_query_free.exit:             ; preds = %2, %._crit_edge.i
  ret void
}